; ModuleID = '54/666.c'
source_filename = "54/666.c"
target datalayout = "e-m:e-p270:32:32-p271:32:32-p272:64:64-i64:64-f80:128-n8:16:32:64-S128"
target triple = "x86_64-pc-linux-gnu"

@.str = private unnamed_addr constant [5 x i8] c"%f%f\00", align 1
@.str.1 = private unnamed_addr constant [4 x i8] c"%d\0A\00", align 1

; Function Attrs: noinline nounwind uwtable
define dso_local double @apple(float %0, float %1, i32 %2, i32 %3) #0 {
  %5 = alloca float, align 4
  %6 = alloca float, align 4
  %7 = alloca i32, align 4
  %8 = alloca i32, align 4
  %9 = alloca double, align 8
  store float %0, float* %5, align 4
  store float %1, float* %6, align 4
  store i32 %2, i32* %7, align 4
  store i32 %3, i32* %8, align 4
  %10 = load i32, i32* %7, align 4
  %11 = sitofp i32 %10 to float
  %12 = load float, float* %5, align 4
  %13 = fcmp oeq float %11, %12
  br i1 %13, label %14, label %22

14:                                               ; preds = %4
  %15 = load i32, i32* %8, align 4
  %16 = sitofp i32 %15 to float
  %17 = load float, float* %5, align 4
  %18 = fmul float %16, %17
  %19 = load float, float* %6, align 4
  %20 = fadd float %18, %19
  %21 = fpext float %20 to double
  store double %21, double* %9, align 8
  br label %39

22:                                               ; preds = %4
  %23 = load float, float* %5, align 4
  %24 = fpext float %23 to double
  %25 = load float, float* %5, align 4
  %26 = load float, float* %6, align 4
  %27 = load i32, i32* %7, align 4
  %28 = add nsw i32 %27, 1
  %29 = load i32, i32* %8, align 4
  %30 = call double @apple(float %25, float %26, i32 %28, i32 %29)
  %31 = fmul double %24, %30
  %32 = load float, float* %5, align 4
  %33 = fsub float %32, 1.000000e+00
  %34 = fpext float %33 to double
  %35 = fdiv double %31, %34
  %36 = load float, float* %6, align 4
  %37 = fpext float %36 to double
  %38 = fadd double %35, %37
  store double %38, double* %9, align 8
  br label %39

39:                                               ; preds = %22, %14
  %40 = load double, double* %9, align 8
  ret double %40
}

; Function Attrs: noinline nounwind uwtable
define dso_local i32 @main() #0 {
  %1 = alloca i32, align 4
  %2 = alloca float, align 4
  %3 = alloca float, align 4
  %4 = alloca i32, align 4
  %5 = alloca i32, align 4
  %6 = alloca i32, align 4
  store i32 0, i32* %1, align 4
  store i32 1, i32* %4, align 4
  %7 = call i32 (i8*, ...) @__isoc99_scanf(i8* getelementptr inbounds ([5 x i8], [5 x i8]* @.str, i64 0, i64 0), float* %2, float* %3)
  br label %8

8:                                                ; preds = %0, %44
  store i32 1, i32* %6, align 4
  %9 = load float, float* %2, align 4
  %10 = fptosi float %9 to i32
  store i32 %10, i32* %5, align 4
  br label %11

11:                                               ; preds = %31, %8
  %12 = load i32, i32* %5, align 4
  %13 = icmp sge i32 %12, 1
  br i1 %13, label %14, label %34

14:                                               ; preds = %11
  %15 = load float, float* %2, align 4
  %16 = load float, float* %3, align 4
  %17 = load i32, i32* %5, align 4
  %18 = load i32, i32* %4, align 4
  %19 = call double @apple(float %15, float %16, i32 %17, i32 %18)
  %20 = load float, float* %2, align 4
  %21 = load float, float* %3, align 4
  %22 = load i32, i32* %5, align 4
  %23 = load i32, i32* %4, align 4
  %24 = call double @apple(float %20, float %21, i32 %22, i32 %23)
  %25 = fptosi double %24 to i32
  %26 = sitofp i32 %25 to double
  %27 = fsub double %19, %26
  %28 = fcmp une double %27, 0.000000e+00
  br i1 %28, label %29, label %30

29:                                               ; preds = %14
  store i32 0, i32* %6, align 4
  br label %34

30:                                               ; preds = %14
  br label %31

31:                                               ; preds = %30
  %32 = load i32, i32* %5, align 4
  %33 = add nsw i32 %32, -1
  store i32 %33, i32* %5, align 4
  br label %11

34:                                               ; preds = %29, %11
  %35 = load i32, i32* %6, align 4
  %36 = icmp eq i32 %35, 1
  br i1 %36, label %37, label %44

37:                                               ; preds = %34
  %38 = load float, float* %2, align 4
  %39 = load float, float* %3, align 4
  %40 = load i32, i32* %4, align 4
  %41 = call double @apple(float %38, float %39, i32 1, i32 %40)
  %42 = fptoui double %41 to i32
  %43 = call i32 (i8*, ...) @printf(i8* getelementptr inbounds ([4 x i8], [4 x i8]* @.str.1, i64 0, i64 0), i32 %42)
  ret i32 0

44:                                               ; preds = %34
  %45 = load i32, i32* %4, align 4
  %46 = add nsw i32 %45, 1
  store i32 %46, i32* %4, align 4
  br label %8
}

declare dso_local i32 @__isoc99_scanf(i8*, ...) #1

declare dso_local i32 @printf(i8*, ...) #1


!llvm.module.flags = !{!0}
!llvm.ident = !{!1}

!0 = !{i32 1, !"wchar_size", i32 4}
!1 = !{!"clang version 10.0.0-4ubuntu1 "}
